target datalayout = "e-m:e-p270:32:32-p271:32:32-p272:64:64-i64:64-i128:128-f80:128-n8:16:32:64-S128"
target triple = "x86_64-pc-linux-gnu"

%struct.DecodedCert = type { ptr, i32, i32, i32, i32, i32, i32, i32, i32, i32, i32, ptr, ptr, ptr, ptr, ptr, [20 x i8], [20 x i8], ptr, ptr, i32, i8, [256 x i8], [256 x i8], i32, ptr, i32, i32, ptr, [32 x i8], i32, ptr, i32, i32, ptr, i32, ptr, i32, ptr, i32, [20 x i8], i32, [20 x i8], i32, i8, i8, i8, i16, i8, i32, ptr, i32, ptr, i32, ptr, i32, ptr, i32, i8, ptr, %struct.SignatureCtx, i32, i32, i32 }
%struct.SignatureCtx = type { ptr, ptr, ptr, ptr, i32, %union.anon.4, i32, i32, i32, i32, i32, i32, i32, i32 }
%union.anon.4 = type { ptr }

; Function Attrs: nounwind uwtable
define i32 @wc_GetPubKeyDerFromCert(ptr noundef %0, ptr noundef %1, ptr noundef %2) #0 {
  %4 = alloca i32, align 4
  %5 = alloca ptr, align 8
  %6 = alloca ptr, align 8
  %7 = alloca ptr, align 8
  %8 = alloca i32, align 4
  %9 = alloca i32, align 4
  store ptr %0, ptr %5, align 8, !tbaa !80
  store ptr %1, ptr %6, align 8, !tbaa !7
  store ptr %2, ptr %7, align 8, !tbaa !18
  call void @llvm.lifetime.start.p0(i64 4, ptr %8) #9
  store i32 0, ptr %8, align 4, !tbaa !3
  %10 = load ptr, ptr %5, align 8, !tbaa !80
  %11 = icmp eq ptr %10, null
  br i1 %11, label %22, label %12

12:                                               ; preds = %3
  %13 = load ptr, ptr %7, align 8, !tbaa !18
  %14 = icmp eq ptr %13, null
  br i1 %14, label %22, label %15

15:                                               ; preds = %12
  %16 = load ptr, ptr %6, align 8, !tbaa !7
  %17 = icmp ne ptr %16, null
  br i1 %17, label %18, label %23

18:                                               ; preds = %15
  %19 = load ptr, ptr %7, align 8, !tbaa !18
  %20 = load i32, ptr %19, align 4, !tbaa !3
  %21 = icmp eq i32 %20, 0
  br i1 %21, label %22, label %23

22:                                               ; preds = %18, %12, %3
  store i32 -173, ptr %4, align 4
  store i32 1, ptr %9, align 4
  br label %70

23:                                               ; preds = %18, %15
  %24 = load ptr, ptr %5, align 8, !tbaa !80
  %25 = getelementptr inbounds nuw %struct.DecodedCert, ptr %24, i32 0, i32 0
  %26 = load ptr, ptr %25, align 8, !tbaa !82
  %27 = icmp eq ptr %26, null
  br i1 %27, label %28, label %32

28:                                               ; preds = %23
  br label %29

29:                                               ; preds = %28
  br label %30

30:                                               ; preds = %29
  br label %31

31:                                               ; preds = %30
  store i32 -173, ptr %4, align 4
  store i32 1, ptr %9, align 4
  br label %70

32:                                               ; preds = %23
  %33 = load ptr, ptr %6, align 8, !tbaa !7
  %34 = icmp eq ptr %33, null
  br i1 %34, label %35, label %40

35:                                               ; preds = %32
  %36 = load ptr, ptr %5, align 8, !tbaa !80
  %37 = getelementptr inbounds nuw %struct.DecodedCert, ptr %36, i32 0, i32 1
  %38 = load i32, ptr %37, align 8, !tbaa !88
  %39 = load ptr, ptr %7, align 8, !tbaa !18
  store i32 %38, ptr %39, align 4, !tbaa !3
  store i32 -202, ptr %8, align 4, !tbaa !3
  br label %40

40:                                               ; preds = %35, %32
  %41 = load i32, ptr %8, align 4, !tbaa !3
  %42 = icmp eq i32 %41, 0
  br i1 %42, label %43, label %68

43:                                               ; preds = %40
  %44 = load ptr, ptr %5, align 8, !tbaa !80
  %45 = getelementptr inbounds nuw %struct.DecodedCert, ptr %44, i32 0, i32 1
  %46 = load i32, ptr %45, align 8, !tbaa !88
  %47 = load ptr, ptr %7, align 8, !tbaa !18
  %48 = load i32, ptr %47, align 4, !tbaa !3
  %49 = icmp ugt i32 %46, %48
  br i1 %49, label %50, label %54

50:                                               ; preds = %43
  br label %51

51:                                               ; preds = %50
  br label %52

52:                                               ; preds = %51
  br label %53

53:                                               ; preds = %52
  store i32 -173, ptr %8, align 4, !tbaa !3
  br label %67

54:                                               ; preds = %43
  %55 = load ptr, ptr %6, align 8, !tbaa !7
  %56 = load ptr, ptr %5, align 8, !tbaa !80
  %57 = getelementptr inbounds nuw %struct.DecodedCert, ptr %56, i32 0, i32 0
  %58 = load ptr, ptr %57, align 8, !tbaa !82
  %59 = load ptr, ptr %5, align 8, !tbaa !80
  %60 = getelementptr inbounds nuw %struct.DecodedCert, ptr %59, i32 0, i32 1
  %61 = load i32, ptr %60, align 8, !tbaa !88
  %62 = zext i32 %61 to i64
  call void @llvm.memcpy.p0.p0.i64(ptr align 1 %55, ptr align 1 %58, i64 %62, i1 false)
  %63 = load ptr, ptr %5, align 8, !tbaa !80
  %64 = getelementptr inbounds nuw %struct.DecodedCert, ptr %63, i32 0, i32 1
  %65 = load i32, ptr %64, align 8, !tbaa !88
  %66 = load ptr, ptr %7, align 8, !tbaa !18
  store i32 %65, ptr %66, align 4, !tbaa !3
  br label %67

67:                                               ; preds = %54, %53
  br label %68

68:                                               ; preds = %67, %40
  %69 = load i32, ptr %8, align 4, !tbaa !3
  store i32 %69, ptr %4, align 4
  store i32 1, ptr %9, align 4
  br label %70

70:                                               ; preds = %68, %31, %22
  call void @llvm.lifetime.end.p0(i64 4, ptr %8) #9
  %71 = load i32, ptr %4, align 4
  ret i32 %71
}