; Function Attrs: mustprogress nofree norecurse nosync nounwind willreturn memory(readwrite, inaccessiblemem: none) uwtable
define range(i32 -202, 1) i32 @wc_GetPubKeyDerFromCert(ptr noundef readonly captures(address_is_null) %0, ptr noundef writeonly captures(address_is_null) %1, ptr noundef captures(address_is_null) %2) local_unnamed_addr #18 {
  %4 = icmp eq ptr %0, null
  %5 = icmp eq ptr %2, null
  %or.cond = or i1 %4, %5
  br i1 %or.cond, label %23, label %6

6:                                                ; preds = %3
  %.not = icmp eq ptr %1, null
  br i1 %.not, label %10, label %7

7:                                                ; preds = %6
  %8 = load i32, ptr %2, align 4, !tbaa !22
  %9 = icmp eq i32 %8, 0
  br i1 %9, label %23, label %.thread

10:                                               ; preds = %6
  %11 = load ptr, ptr %0, align 8, !tbaa !62
  %12 = icmp eq ptr %11, null
  br i1 %12, label %23, label %15

.thread:                                          ; preds = %7
  %13 = load ptr, ptr %0, align 8, !tbaa !62
  %14 = icmp eq ptr %13, null
  br i1 %14, label %23, label %17

15:                                               ; preds = %10
  %16 = getelementptr inbounds nuw i8, ptr %0, i64 8
  br label %.sink.split

17:                                               ; preds = %.thread
  %18 = getelementptr inbounds nuw i8, ptr %0, i64 8
  %19 = load i32, ptr %18, align 8, !tbaa !68
  %20 = icmp ugt i32 %19, %8
  br i1 %20, label %23, label %21

21:                                               ; preds = %17
  %22 = zext i32 %19 to i64
  tail call void @llvm.memcpy.p0.p0.i64(ptr nonnull align 1 %1, ptr nonnull align 1 %13, i64 %22, i1 false)
  br label %.sink.split

.sink.split:                                      ; preds = %21, %15
  %.sink.in = phi ptr [ %16, %15 ], [ %18, %21 ]
  %.018.ph = phi i32 [ -202, %15 ], [ 0, %21 ]
  %.sink = load i32, ptr %.sink.in, align 8, !tbaa !68
  store i32 %.sink, ptr %2, align 4, !tbaa !22
  br label %23

23:                                               ; preds = %.sink.split, %.thread, %17, %10, %3, %7
  %.018 = phi i32 [ -173, %7 ], [ -173, %3 ], [ -173, %10 ], [ -173, %17 ], [ -173, %.thread ], [ %.018.ph, %.sink.split ]
  ret i32 %.018
}